target datalayout = "e-m:e-p270:32:32-p271:32:32-p272:64:64-i64:64-i128:128-f80:128-n8:16:32:64-S128"
target triple = "x86_64-pc-linux-gnu"

%struct.DdManager = type { %struct.DdNode, ptr, ptr, ptr, ptr, ptr, ptr, ptr, i32, i32, double, double, double, i32, i32, i32, i32, i32, i32, ptr, ptr, %struct.DdSubtable, i32, i32, i32, i32, i32, i32, i32, double, i32, i32, i32, ptr, i64, double, i32, ptr, ptr, ptr, ptr, ptr, ptr, ptr, i32, ptr, ptr, ptr, ptr, ptr, ptr, i32, i32, i32, double, i32, i32, i32, i32, double, double, i32, i32, i32, i32, i32, i32, i32, i32, i32, ptr, ptr, i32, i32, i32, i32, i32, i32, ptr, ptr, ptr, ptr, ptr, ptr, ptr, ptr, i32, i64, i64, i64, i32, i64, i64, double, double, double, double, double, double, i32, ptr, ptr, i64 }
%struct.DdNode = type { i32, i32, ptr, %union.anon, i64 }
%union.anon = type { %struct.DdChildren }
%struct.DdChildren = type { ptr, ptr }
%struct.DdSubtable = type { ptr, i32, i32, i32, i32, i32, i32, i32, i32, i32, i32, i32 }

; Function Attrs: nounwind uwtable
define ptr @cuddAddComposeRecur(ptr noundef %0, ptr noundef %1, ptr noundef %2, ptr noundef %3) #0 {
  %5 = alloca ptr, align 8
  %6 = alloca ptr, align 8
  %7 = alloca ptr, align 8
  %8 = alloca ptr, align 8
  %9 = alloca ptr, align 8
  %10 = alloca ptr, align 8
  %11 = alloca ptr, align 8
  %12 = alloca ptr, align 8
  %13 = alloca ptr, align 8
  %14 = alloca ptr, align 8
  %15 = alloca ptr, align 8
  %16 = alloca ptr, align 8
  %17 = alloca i32, align 4
  %18 = alloca i32, align 4
  %19 = alloca i32, align 4
  %20 = alloca i32, align 4
  %21 = alloca i32, align 4
  store ptr %0, ptr %6, align 8, !tbaa !3
  store ptr %1, ptr %7, align 8, !tbaa !8
  store ptr %2, ptr %8, align 8, !tbaa !8
  store ptr %3, ptr %9, align 8, !tbaa !8
  call void @llvm.lifetime.start.p0(i64 8, ptr %10) #6
  call void @llvm.lifetime.start.p0(i64 8, ptr %11) #6
  call void @llvm.lifetime.start.p0(i64 8, ptr %12) #6
  call void @llvm.lifetime.start.p0(i64 8, ptr %13) #6
  call void @llvm.lifetime.start.p0(i64 8, ptr %14) #6
  call void @llvm.lifetime.start.p0(i64 8, ptr %15) #6
  call void @llvm.lifetime.start.p0(i64 8, ptr %16) #6
  call void @llvm.lifetime.start.p0(i64 4, ptr %17) #6
  call void @llvm.lifetime.start.p0(i64 4, ptr %18) #6
  call void @llvm.lifetime.start.p0(i64 4, ptr %19) #6
  call void @llvm.lifetime.start.p0(i64 4, ptr %20) #6
  %22 = load ptr, ptr %6, align 8, !tbaa !3
  %23 = getelementptr inbounds nuw %struct.DdManager, ptr %22, i32 0, i32 37
  %24 = load ptr, ptr %23, align 8, !tbaa !32
  %25 = load ptr, ptr %9, align 8, !tbaa !8
  %26 = getelementptr inbounds nuw %struct.DdNode, ptr %25, i32 0, i32 0
  %27 = load i32, ptr %26, align 8, !tbaa !33
  %28 = zext i32 %27 to i64
  %29 = getelementptr inbounds nuw i32, ptr %24, i64 %28
  %30 = load i32, ptr %29, align 4, !tbaa !10
  store i32 %30, ptr %17, align 4, !tbaa !10
  %31 = load ptr, ptr %7, align 8, !tbaa !8
  %32 = getelementptr inbounds nuw %struct.DdNode, ptr %31, i32 0, i32 0
  %33 = load i32, ptr %32, align 8, !tbaa !33
  %34 = icmp eq i32 %33, 2147483647
  br i1 %34, label %35, label %39

35:                                               ; preds = %4
  %36 = load ptr, ptr %7, align 8, !tbaa !8
  %37 = getelementptr inbounds nuw %struct.DdNode, ptr %36, i32 0, i32 0
  %38 = load i32, ptr %37, align 8, !tbaa !33
  br label %49

39:                                               ; preds = %4
  %40 = load ptr, ptr %6, align 8, !tbaa !3
  %41 = getelementptr inbounds nuw %struct.DdManager, ptr %40, i32 0, i32 37
  %42 = load ptr, ptr %41, align 8, !tbaa !32
  %43 = load ptr, ptr %7, align 8, !tbaa !8
  %44 = getelementptr inbounds nuw %struct.DdNode, ptr %43, i32 0, i32 0
  %45 = load i32, ptr %44, align 8, !tbaa !33
  %46 = zext i32 %45 to i64
  %47 = getelementptr inbounds nuw i32, ptr %42, i64 %46
  %48 = load i32, ptr %47, align 4, !tbaa !10
  br label %49

49:                                               ; preds = %39, %35
  %50 = phi i32 [ %38, %35 ], [ %48, %39 ]
  store i32 %50, ptr %18, align 4, !tbaa !10
  %51 = load i32, ptr %18, align 4, !tbaa !10
  %52 = load i32, ptr %17, align 4, !tbaa !10
  %53 = icmp ugt i32 %51, %52
  br i1 %53, label %54, label %56

54:                                               ; preds = %49
  %55 = load ptr, ptr %7, align 8, !tbaa !8
  store ptr %55, ptr %5, align 8
  store i32 1, ptr %21, align 4
  br label %220

56:                                               ; preds = %49
  %57 = load ptr, ptr %6, align 8, !tbaa !3
  %58 = load ptr, ptr %7, align 8, !tbaa !8
  %59 = load ptr, ptr %8, align 8, !tbaa !8
  %60 = load ptr, ptr %9, align 8, !tbaa !8
  %61 = call ptr @cuddCacheLookup(ptr noundef %57, i64 noundef 66, ptr noundef %58, ptr noundef %59, ptr noundef %60)
  store ptr %61, ptr %14, align 8, !tbaa !8
  %62 = load ptr, ptr %14, align 8, !tbaa !8
  %63 = icmp ne ptr %62, null
  br i1 %63, label %64, label %66

64:                                               ; preds = %56
  %65 = load ptr, ptr %14, align 8, !tbaa !8
  store ptr %65, ptr %5, align 8
  store i32 1, ptr %21, align 4
  br label %220

66:                                               ; preds = %56
  %67 = load i32, ptr %18, align 4, !tbaa !10
  %68 = load i32, ptr %17, align 4, !tbaa !10
  %69 = icmp eq i32 %67, %68
  br i1 %69, label %70, label %88

70:                                               ; preds = %66
  %71 = load ptr, ptr %7, align 8, !tbaa !8
  %72 = getelementptr inbounds nuw %struct.DdNode, ptr %71, i32 0, i32 3
  %73 = getelementptr inbounds nuw %struct.DdChildren, ptr %72, i32 0, i32 0
  %74 = load ptr, ptr %73, align 8, !tbaa !34
  store ptr %74, ptr %10, align 8, !tbaa !8
  %75 = load ptr, ptr %7, align 8, !tbaa !8
  %76 = getelementptr inbounds nuw %struct.DdNode, ptr %75, i32 0, i32 3
  %77 = getelementptr inbounds nuw %struct.DdChildren, ptr %76, i32 0, i32 1
  %78 = load ptr, ptr %77, align 8, !tbaa !34
  store ptr %78, ptr %11, align 8, !tbaa !8
  %79 = load ptr, ptr %6, align 8, !tbaa !3
  %80 = load ptr, ptr %8, align 8, !tbaa !8
  %81 = load ptr, ptr %10, align 8, !tbaa !8
  %82 = load ptr, ptr %11, align 8, !tbaa !8
  %83 = call ptr @cuddAddIteRecur(ptr noundef %79, ptr noundef %80, ptr noundef %81, ptr noundef %82)
  store ptr %83, ptr %14, align 8, !tbaa !8
  %84 = load ptr, ptr %14, align 8, !tbaa !8
  %85 = icmp eq ptr %84, null
  br i1 %85, label %86, label %87

86:                                               ; preds = %70
  store ptr null, ptr %5, align 8
  store i32 1, ptr %21, align 4
  br label %220

87:                                               ; preds = %70
  br label %213

88:                                               ; preds = %66
  %89 = load ptr, ptr %8, align 8, !tbaa !8
  %90 = getelementptr inbounds nuw %struct.DdNode, ptr %89, i32 0, i32 0
  %91 = load i32, ptr %90, align 8, !tbaa !33
  %92 = icmp eq i32 %91, 2147483647
  br i1 %92, label %93, label %97

93:                                               ; preds = %88
  %94 = load ptr, ptr %8, align 8, !tbaa !8
  %95 = getelementptr inbounds nuw %struct.DdNode, ptr %94, i32 0, i32 0
  %96 = load i32, ptr %95, align 8, !tbaa !33
  br label %107

97:                                               ; preds = %88
  %98 = load ptr, ptr %6, align 8, !tbaa !3
  %99 = getelementptr inbounds nuw %struct.DdManager, ptr %98, i32 0, i32 37
  %100 = load ptr, ptr %99, align 8, !tbaa !32
  %101 = load ptr, ptr %8, align 8, !tbaa !8
  %102 = getelementptr inbounds nuw %struct.DdNode, ptr %101, i32 0, i32 0
  %103 = load i32, ptr %102, align 8, !tbaa !33
  %104 = zext i32 %103 to i64
  %105 = getelementptr inbounds nuw i32, ptr %100, i64 %104
  %106 = load i32, ptr %105, align 4, !tbaa !10
  br label %107

107:                                              ; preds = %97, %93
  %108 = phi i32 [ %96, %93 ], [ %106, %97 ]
  store i32 %108, ptr %19, align 4, !tbaa !10
  %109 = load i32, ptr %18, align 4, !tbaa !10
  %110 = load i32, ptr %19, align 4, !tbaa !10
  %111 = icmp ugt i32 %109, %110
  br i1 %111, label %112, label %117

112:                                              ; preds = %107
  %113 = load ptr, ptr %8, align 8, !tbaa !8
  %114 = getelementptr inbounds nuw %struct.DdNode, ptr %113, i32 0, i32 0
  %115 = load i32, ptr %114, align 8, !tbaa !33
  store i32 %115, ptr %20, align 4, !tbaa !10
  %116 = load ptr, ptr %7, align 8, !tbaa !8
  store ptr %116, ptr %11, align 8, !tbaa !8
  store ptr %116, ptr %10, align 8, !tbaa !8
  br label %129

117:                                              ; preds = %107
  %118 = load ptr, ptr %7, align 8, !tbaa !8
  %119 = getelementptr inbounds nuw %struct.DdNode, ptr %118, i32 0, i32 0
  %120 = load i32, ptr %119, align 8, !tbaa !33
  store i32 %120, ptr %20, align 4, !tbaa !10
  %121 = load ptr, ptr %7, align 8, !tbaa !8
  %122 = getelementptr inbounds nuw %struct.DdNode, ptr %121, i32 0, i32 3
  %123 = getelementptr inbounds nuw %struct.DdChildren, ptr %122, i32 0, i32 0
  %124 = load ptr, ptr %123, align 8, !tbaa !34
  store ptr %124, ptr %10, align 8, !tbaa !8
  %125 = load ptr, ptr %7, align 8, !tbaa !8
  %126 = getelementptr inbounds nuw %struct.DdNode, ptr %125, i32 0, i32 3
  %127 = getelementptr inbounds nuw %struct.DdChildren, ptr %126, i32 0, i32 1
  %128 = load ptr, ptr %127, align 8, !tbaa !34
  store ptr %128, ptr %11, align 8, !tbaa !8
  br label %129

129:                                              ; preds = %117, %112
  %130 = load i32, ptr %19, align 4, !tbaa !10
  %131 = load i32, ptr %18, align 4, !tbaa !10
  %132 = icmp ugt i32 %130, %131
  br i1 %132, label %133, label %135

133:                                              ; preds = %129
  %134 = load ptr, ptr %8, align 8, !tbaa !8
  store ptr %134, ptr %13, align 8, !tbaa !8
  store ptr %134, ptr %12, align 8, !tbaa !8
  br label %144

135:                                              ; preds = %129
  %136 = load ptr, ptr %8, align 8, !tbaa !8
  %137 = getelementptr inbounds nuw %struct.DdNode, ptr %136, i32 0, i32 3
  %138 = getelementptr inbounds nuw %struct.DdChildren, ptr %137, i32 0, i32 0
  %139 = load ptr, ptr %138, align 8, !tbaa !34
  store ptr %139, ptr %12, align 8, !tbaa !8
  %140 = load ptr, ptr %8, align 8, !tbaa !8
  %141 = getelementptr inbounds nuw %struct.DdNode, ptr %140, i32 0, i32 3
  %142 = getelementptr inbounds nuw %struct.DdChildren, ptr %141, i32 0, i32 1
  %143 = load ptr, ptr %142, align 8, !tbaa !34
  store ptr %143, ptr %13, align 8, !tbaa !8
  br label %144

144:                                              ; preds = %135, %133
  %145 = load ptr, ptr %6, align 8, !tbaa !3
  %146 = load ptr, ptr %10, align 8, !tbaa !8
  %147 = load ptr, ptr %12, align 8, !tbaa !8
  %148 = load ptr, ptr %9, align 8, !tbaa !8
  %149 = call ptr @cuddAddComposeRecur(ptr noundef %145, ptr noundef %146, ptr noundef %147, ptr noundef %148)
  store ptr %149, ptr %15, align 8, !tbaa !8
  %150 = load ptr, ptr %15, align 8, !tbaa !8
  %151 = icmp eq ptr %150, null
  br i1 %151, label %152, label %153

152:                                              ; preds = %144
  store ptr null, ptr %5, align 8
  store i32 1, ptr %21, align 4
  br label %220

153:                                              ; preds = %144
  %154 = load ptr, ptr %15, align 8, !tbaa !8
  %155 = ptrtoint ptr %154 to i64
  %156 = and i64 %155, -2
  %157 = inttoptr i64 %156 to ptr
  %158 = getelementptr inbounds nuw %struct.DdNode, ptr %157, i32 0, i32 1
  %159 = load i32, ptr %158, align 4, !tbaa !35
  %160 = add i32 %159, 1
  store i32 %160, ptr %158, align 4, !tbaa !35
  %161 = load ptr, ptr %6, align 8, !tbaa !3
  %162 = load ptr, ptr %11, align 8, !tbaa !8
  %163 = load ptr, ptr %13, align 8, !tbaa !8
  %164 = load ptr, ptr %9, align 8, !tbaa !8
  %165 = call ptr @cuddAddComposeRecur(ptr noundef %161, ptr noundef %162, ptr noundef %163, ptr noundef %164)
  store ptr %165, ptr %16, align 8, !tbaa !8
  %166 = load ptr, ptr %16, align 8, !tbaa !8
  %167 = icmp eq ptr %166, null
  br i1 %167, label %168, label %171

168:                                              ; preds = %153
  %169 = load ptr, ptr %6, align 8, !tbaa !3
  %170 = load ptr, ptr %15, align 8, !tbaa !8
  call void @Cudd_RecursiveDeref(ptr noundef %169, ptr noundef %170)
  store ptr null, ptr %5, align 8
  store i32 1, ptr %21, align 4
  br label %220

171:                                              ; preds = %153
  %172 = load ptr, ptr %16, align 8, !tbaa !8
  %173 = ptrtoint ptr %172 to i64
  %174 = and i64 %173, -2
  %175 = inttoptr i64 %174 to ptr
  %176 = getelementptr inbounds nuw %struct.DdNode, ptr %175, i32 0, i32 1
  %177 = load i32, ptr %176, align 4, !tbaa !35
  %178 = add i32 %177, 1
  store i32 %178, ptr %176, align 4, !tbaa !35
  %179 = load ptr, ptr %15, align 8, !tbaa !8
  %180 = load ptr, ptr %16, align 8, !tbaa !8
  %181 = icmp eq ptr %179, %180
  br i1 %181, label %182, label %184

182:                                              ; preds = %171
  %183 = load ptr, ptr %15, align 8, !tbaa !8
  store ptr %183, ptr %14, align 8, !tbaa !8
  br label %198

184:                                              ; preds = %171
  %185 = load ptr, ptr %6, align 8, !tbaa !3
  %186 = load i32, ptr %20, align 4, !tbaa !10
  %187 = load ptr, ptr %15, align 8, !tbaa !8
  %188 = load ptr, ptr %16, align 8, !tbaa !8
  %189 = call ptr @cuddUniqueInter(ptr noundef %185, i32 noundef %186, ptr noundef %187, ptr noundef %188)
  store ptr %189, ptr %14, align 8, !tbaa !8
  %190 = load ptr, ptr %14, align 8, !tbaa !8
  %191 = icmp eq ptr %190, null
  br i1 %191, label %192, label %197

192:                                              ; preds = %184
  %193 = load ptr, ptr %6, align 8, !tbaa !3
  %194 = load ptr, ptr %15, align 8, !tbaa !8
  call void @Cudd_RecursiveDeref(ptr noundef %193, ptr noundef %194)
  %195 = load ptr, ptr %6, align 8, !tbaa !3
  %196 = load ptr, ptr %16, align 8, !tbaa !8
  call void @Cudd_RecursiveDeref(ptr noundef %195, ptr noundef %196)
  store ptr null, ptr %5, align 8
  store i32 1, ptr %21, align 4
  br label %220

197:                                              ; preds = %184
  br label %198

198:                                              ; preds = %197, %182
  %199 = load ptr, ptr %15, align 8, !tbaa !8
  %200 = ptrtoint ptr %199 to i64
  %201 = and i64 %200, -2
  %202 = inttoptr i64 %201 to ptr
  %203 = getelementptr inbounds nuw %struct.DdNode, ptr %202, i32 0, i32 1
  %204 = load i32, ptr %203, align 4, !tbaa !35
  %205 = add i32 %204, -1
  store i32 %205, ptr %203, align 4, !tbaa !35
  %206 = load ptr, ptr %16, align 8, !tbaa !8
  %207 = ptrtoint ptr %206 to i64
  %208 = and i64 %207, -2
  %209 = inttoptr i64 %208 to ptr
  %210 = getelementptr inbounds nuw %struct.DdNode, ptr %209, i32 0, i32 1
  %211 = load i32, ptr %210, align 4, !tbaa !35
  %212 = add i32 %211, -1
  store i32 %212, ptr %210, align 4, !tbaa !35
  br label %213

213:                                              ; preds = %198, %87
  %214 = load ptr, ptr %6, align 8, !tbaa !3
  %215 = load ptr, ptr %7, align 8, !tbaa !8
  %216 = load ptr, ptr %8, align 8, !tbaa !8
  %217 = load ptr, ptr %9, align 8, !tbaa !8
  %218 = load ptr, ptr %14, align 8, !tbaa !8
  call void @cuddCacheInsert(ptr noundef %214, i64 noundef 66, ptr noundef %215, ptr noundef %216, ptr noundef %217, ptr noundef %218)
  %219 = load ptr, ptr %14, align 8, !tbaa !8
  store ptr %219, ptr %5, align 8
  store i32 1, ptr %21, align 4
  br label %220

220:                                              ; preds = %213, %192, %168, %152, %86, %64, %54
  call void @llvm.lifetime.end.p0(i64 4, ptr %20) #6
  call void @llvm.lifetime.end.p0(i64 4, ptr %19) #6
  call void @llvm.lifetime.end.p0(i64 4, ptr %18) #6
  call void @llvm.lifetime.end.p0(i64 4, ptr %17) #6
  call void @llvm.lifetime.end.p0(i64 8, ptr %16) #6
  call void @llvm.lifetime.end.p0(i64 8, ptr %15) #6
  call void @llvm.lifetime.end.p0(i64 8, ptr %14) #6
  call void @llvm.lifetime.end.p0(i64 8, ptr %13) #6
  call void @llvm.lifetime.end.p0(i64 8, ptr %12) #6
  call void @llvm.lifetime.end.p0(i64 8, ptr %11) #6
  call void @llvm.lifetime.end.p0(i64 8, ptr %10) #6
  %221 = load ptr, ptr %5, align 8
  ret ptr %221
}