; Function Attrs: nounwind uwtable
define ptr @cuddAddComposeRecur(ptr noundef %0, ptr noundef %1, ptr noundef %2, ptr noundef %3) local_unnamed_addr #0 {
  %5 = getelementptr inbounds nuw i8, ptr %0, i64 312
  %6 = load ptr, ptr %5, align 8, !tbaa !29
  %7 = load i32, ptr %3, align 8, !tbaa !30
  %8 = zext i32 %7 to i64
  %9 = getelementptr inbounds nuw i32, ptr %6, i64 %8
  %10 = load i32, ptr %9, align 4, !tbaa !31
  %11 = load i32, ptr %1, align 8, !tbaa !30
  %12 = icmp eq i32 %11, 2147483647
  br i1 %12, label %17, label %13

13:                                               ; preds = %4
  %14 = zext i32 %11 to i64
  %15 = getelementptr inbounds nuw i32, ptr %6, i64 %14
  %16 = load i32, ptr %15, align 4, !tbaa !31
  br label %17

17:                                               ; preds = %4, %13
  %18 = phi i32 [ %16, %13 ], [ 2147483647, %4 ]
  %19 = icmp ugt i32 %18, %10
  br i1 %19, label %85, label %20

20:                                               ; preds = %17
  %21 = tail call ptr @cuddCacheLookup(ptr noundef nonnull %0, i64 noundef 66, ptr noundef nonnull %1, ptr noundef %2, ptr noundef nonnull %3) #7
  %.not = icmp eq ptr %21, null
  br i1 %.not, label %22, label %85

22:                                               ; preds = %20
  %23 = icmp eq i32 %18, %10
  br i1 %23, label %24, label %31

24:                                               ; preds = %22
  %25 = getelementptr inbounds nuw i8, ptr %1, i64 16
  %26 = load ptr, ptr %25, align 8, !tbaa !32
  %27 = getelementptr inbounds nuw i8, ptr %1, i64 24
  %28 = load ptr, ptr %27, align 8, !tbaa !32
  %29 = tail call ptr @cuddAddIteRecur(ptr noundef nonnull %0, ptr noundef %2, ptr noundef %26, ptr noundef %28) #7
  %30 = icmp eq ptr %29, null
  br i1 %30, label %85, label %84

31:                                               ; preds = %22
  %32 = load i32, ptr %2, align 8, !tbaa !30
  %33 = icmp eq i32 %32, 2147483647
  br i1 %33, label %39, label %34

34:                                               ; preds = %31
  %35 = load ptr, ptr %5, align 8, !tbaa !29
  %36 = zext i32 %32 to i64
  %37 = getelementptr inbounds nuw i32, ptr %35, i64 %36
  %38 = load i32, ptr %37, align 4, !tbaa !31
  br label %39

39:                                               ; preds = %31, %34
  %40 = phi i32 [ %38, %34 ], [ 2147483647, %31 ]
  %41 = icmp ugt i32 %18, %40
  br i1 %41, label %47, label %42

42:                                               ; preds = %39
  %43 = getelementptr inbounds nuw i8, ptr %1, i64 16
  %44 = load ptr, ptr %43, align 8, !tbaa !32
  %45 = getelementptr inbounds nuw i8, ptr %1, i64 24
  %46 = load ptr, ptr %45, align 8, !tbaa !32
  %.0.pre = load i32, ptr %1, align 8, !tbaa !30
  br label %47

47:                                               ; preds = %39, %42
  %.0 = phi i32 [ %.0.pre, %42 ], [ %32, %39 ]
  %.076 = phi ptr [ %46, %42 ], [ %1, %39 ]
  %.075 = phi ptr [ %44, %42 ], [ %1, %39 ]
  %48 = icmp ugt i32 %40, %18
  br i1 %48, label %54, label %49

49:                                               ; preds = %47
  %50 = getelementptr inbounds nuw i8, ptr %2, i64 16
  %51 = load ptr, ptr %50, align 8, !tbaa !32
  %52 = getelementptr inbounds nuw i8, ptr %2, i64 24
  %53 = load ptr, ptr %52, align 8, !tbaa !32
  br label %54

54:                                               ; preds = %47, %49
  %.078 = phi ptr [ %53, %49 ], [ %2, %47 ]
  %.077 = phi ptr [ %51, %49 ], [ %2, %47 ]
  %55 = tail call ptr @cuddAddComposeRecur(ptr noundef nonnull %0, ptr noundef %.075, ptr noundef %.077, ptr noundef nonnull %3)
  %56 = icmp eq ptr %55, null
  br i1 %56, label %85, label %57

57:                                               ; preds = %54
  %58 = ptrtoint ptr %55 to i64
  %59 = and i64 %58, -2
  %60 = inttoptr i64 %59 to ptr
  %61 = getelementptr inbounds nuw i8, ptr %60, i64 4
  %62 = load i32, ptr %61, align 4, !tbaa !33
  %63 = add i32 %62, 1
  store i32 %63, ptr %61, align 4, !tbaa !33
  %64 = tail call ptr @cuddAddComposeRecur(ptr noundef nonnull %0, ptr noundef %.076, ptr noundef %.078, ptr noundef nonnull %3)
  %65 = icmp eq ptr %64, null
  br i1 %65, label %66, label %67

66:                                               ; preds = %57
  tail call void @Cudd_RecursiveDeref(ptr noundef nonnull %0, ptr noundef nonnull %55) #7
  br label %85

67:                                               ; preds = %57
  %68 = ptrtoint ptr %64 to i64
  %69 = and i64 %68, -2
  %70 = inttoptr i64 %69 to ptr
  %71 = getelementptr inbounds nuw i8, ptr %70, i64 4
  %72 = load i32, ptr %71, align 4, !tbaa !33
  %73 = add i32 %72, 1
  store i32 %73, ptr %71, align 4, !tbaa !33
  %74 = icmp eq ptr %55, %64
  br i1 %74, label %79, label %75

75:                                               ; preds = %67
  %76 = tail call ptr @cuddUniqueInter(ptr noundef nonnull %0, i32 noundef %.0, ptr noundef nonnull %55, ptr noundef nonnull %64) #7
  %77 = icmp eq ptr %76, null
  br i1 %77, label %78, label %79

78:                                               ; preds = %75
  tail call void @Cudd_RecursiveDeref(ptr noundef nonnull %0, ptr noundef nonnull %55) #7
  tail call void @Cudd_RecursiveDeref(ptr noundef nonnull %0, ptr noundef nonnull %64) #7
  br label %85

79:                                               ; preds = %67, %75
  %.1 = phi ptr [ %76, %75 ], [ %55, %67 ]
  %80 = load i32, ptr %61, align 4, !tbaa !33
  %81 = add i32 %80, -1
  store i32 %81, ptr %61, align 4, !tbaa !33
  %82 = load i32, ptr %71, align 4, !tbaa !33
  %83 = add i32 %82, -1
  store i32 %83, ptr %71, align 4, !tbaa !33
  br label %84

84:                                               ; preds = %24, %79
  %.079 = phi ptr [ %29, %24 ], [ %.1, %79 ]
  tail call void @cuddCacheInsert(ptr noundef nonnull %0, i64 noundef 66, ptr noundef nonnull %1, ptr noundef %2, ptr noundef nonnull %3, ptr noundef nonnull %.079) #7
  br label %85

85:                                               ; preds = %54, %24, %20, %17, %84, %78, %66
  %.074 = phi ptr [ %.079, %84 ], [ null, %66 ], [ null, %78 ], [ %1, %17 ], [ %21, %20 ], [ null, %24 ], [ null, %54 ]
  ret ptr %.074
}